target datalayout = "e-m:e-p270:32:32-p271:32:32-p272:64:64-i64:64-i128:128-f80:128-n8:16:32:64-S128"
target triple = "x86_64-pc-linux-gnu"

%struct.timespec = type { i64, i64 }

; Function Attrs: nounwind uwtable
define dso_local void @uv_sleep(i32 noundef %0) #0 {
  %2 = alloca i32, align 4
  %3 = alloca %struct.timespec, align 8
  %4 = alloca i32, align 4
  store i32 %0, ptr %2, align 4
  call void @llvm.lifetime.start.p0(i64 16, ptr %3) #11
  call void @llvm.lifetime.start.p0(i64 4, ptr %4) #11
  %5 = load i32, ptr %2, align 4
  %6 = udiv i32 %5, 1000
  %7 = zext i32 %6 to i64
  %8 = getelementptr inbounds nuw %struct.timespec, ptr %3, i32 0, i32 0
  store i64 %7, ptr %8, align 8
  %9 = load i32, ptr %2, align 4
  %10 = urem i32 %9, 1000
  %11 = mul i32 %10, 1000
  %12 = mul i32 %11, 1000
  %13 = zext i32 %12 to i64
  %14 = getelementptr inbounds nuw %struct.timespec, ptr %3, i32 0, i32 1
  store i64 %13, ptr %14, align 8
  br label %15

15:                                               ; preds = %24, %1
  %16 = call i32 @nanosleep(ptr noundef %3, ptr noundef %3)
  store i32 %16, ptr %4, align 4
  br label %17

17:                                               ; preds = %15
  %18 = load i32, ptr %4, align 4
  %19 = icmp eq i32 %18, -1
  br i1 %19, label %20, label %24

20:                                               ; preds = %17
  %21 = call ptr @__errno_location() #12
  %22 = load i32, ptr %21, align 4
  %23 = icmp eq i32 %22, 4
  br label %24

24:                                               ; preds = %20, %17
  %25 = phi i1 [ false, %17 ], [ %23, %20 ]
  br i1 %25, label %15, label %26

26:                                               ; preds = %24
  call void @llvm.lifetime.end.p0(i64 4, ptr %4) #11
  call void @llvm.lifetime.end.p0(i64 16, ptr %3) #11
  ret void
}