; Function Attrs: nounwind uwtable
define dso_local void @uv_sleep(i32 noundef %0) local_unnamed_addr #0 {
  %2 = alloca %struct.timespec, align 8
  call void @llvm.lifetime.start.p0(i64 16, ptr nonnull %2) #23
  %3 = udiv i32 %0, 1000
  %4 = zext nneg i32 %3 to i64
  store i64 %4, ptr %2, align 8
  %5 = urem i32 %0, 1000
  %6 = mul nuw nsw i32 %5, 1000000
  %7 = zext nneg i32 %6 to i64
  %8 = getelementptr inbounds nuw i8, ptr %2, i64 8
  store i64 %7, ptr %8, align 8
  br label %9

9:                                                ; preds = %12, %1
  %10 = call i32 @nanosleep(ptr noundef nonnull %2, ptr noundef nonnull %2) #23
  %11 = icmp eq i32 %10, -1
  br i1 %11, label %12, label %.critedge

12:                                               ; preds = %9
  %13 = tail call ptr @__errno_location() #24
  %14 = load i32, ptr %13, align 4
  %15 = icmp eq i32 %14, 4
  br i1 %15, label %9, label %.critedge

.critedge:                                        ; preds = %9, %12
  call void @llvm.lifetime.end.p0(i64 16, ptr nonnull %2) #23
  ret void
}